target datalayout = "e-m:e-p270:32:32-p271:32:32-p272:64:64-i64:64-i128:128-f80:128-n8:16:32:64-S128"
target triple = "x86_64-pc-linux-gnu"

%struct.mbedtls_ssl_context = type { ptr, i32, i32, i32, i32, i32, ptr, ptr, ptr, ptr, ptr, ptr, ptr, ptr, ptr, ptr, ptr, ptr, ptr, ptr, ptr, ptr, ptr, ptr, ptr, ptr, ptr, ptr, ptr, ptr, ptr, ptr, ptr, i32, i64, i64, i16, i64, i64, i64, i64, i32, i32, i8, i8, i32, i8, ptr, ptr, ptr, ptr, ptr, ptr, ptr, i32, i64, i64, [8 x i8], i16, ptr, ptr, ptr, i64, i32, i64, [12 x i8], [12 x i8], [32 x i8], i8, i8, ptr, ptr, %union.mbedtls_ssl_user_data_t }
%union.mbedtls_ssl_user_data_t = type { i64 }
%struct.mbedtls_mpi = type { ptr, i16, i16 }
%struct.mbedtls_ssl_handshake_params = type { i8, i8, i8, i8, i8, i32, i8, i8, i8, i8, ptr, ptr, ptr, ptr, ptr, i8, i8, i8, i8, i16, i16, [20 x i16], ptr, ptr, %struct.mbedtls_dhm_context, %struct.mbedtls_ecdh_context, i16, i64, i32, i8, [1024 x i8], i64, ptr, ptr, i64, i16, ptr, ptr, ptr, ptr, %struct.anon, ptr, i16, i8, i32, i32, i32, ptr, ptr, ptr, i32, ptr, [8 x i8], i8, [32 x i8], i8, i16, %struct.mbedtls_md_context_t, %struct.mbedtls_md_context_t, i16, i8, %union.anon.1, [64 x i8], [1076 x i8], i64, i32, i32, i8, ptr, ptr, %union.anon.4, %struct.mbedtls_ssl_tls13_handshake_secrets, ptr, i64, ptr }
%struct.mbedtls_dhm_context = type { %struct.mbedtls_mpi, %struct.mbedtls_mpi, %struct.mbedtls_mpi, %struct.mbedtls_mpi, %struct.mbedtls_mpi, %struct.mbedtls_mpi, %struct.mbedtls_mpi, %struct.mbedtls_mpi, %struct.mbedtls_mpi, %struct.mbedtls_mpi }
%struct.mbedtls_ecdh_context = type { i8, i32, i32, %union.anon }
%union.anon = type { %struct.mbedtls_ecdh_context_mbed }
%struct.mbedtls_ecdh_context_mbed = type { %struct.mbedtls_ecp_group, %struct.mbedtls_mpi, %struct.mbedtls_ecp_point, %struct.mbedtls_ecp_point, %struct.mbedtls_mpi }
%struct.mbedtls_ecp_group = type { i32, %struct.mbedtls_mpi, %struct.mbedtls_mpi, %struct.mbedtls_mpi, %struct.mbedtls_ecp_point, %struct.mbedtls_mpi, i64, i64, i32, ptr, ptr, ptr, ptr, ptr, i64 }
%struct.mbedtls_ecp_point = type { %struct.mbedtls_mpi, %struct.mbedtls_mpi, %struct.mbedtls_mpi }
%struct.anon = type { i64, i8, [4 x %struct.mbedtls_ssl_hs_buffer], %struct.anon.0 }
%struct.mbedtls_ssl_hs_buffer = type { i8, ptr, i64 }
%struct.anon.0 = type { ptr, i64, i32 }
%struct.mbedtls_md_context_t = type { ptr, ptr, ptr }
%union.anon.1 = type { %struct.anon.2 }
%struct.anon.2 = type { i8, [64 x i8], i64 }
%union.anon.4 = type { [64 x i8] }
%struct.mbedtls_ssl_tls13_handshake_secrets = type { [64 x i8], [64 x i8] }

@.str = private unnamed_addr constant [130 x i8] c"generated/home/dtcxzyw/WorkSpace/Projects/compilers/llvm-opt-benchmark/bench/lief/bench_build/mbed_src/library/ssl_tls12_server.c\00", align 1
@.str.8 = private unnamed_addr constant [25 x i8] c"bad client hello message\00", align 1
@.str.59 = private unnamed_addr constant [26 x i8] c"point format selected: %d\00", align 1

; Function Attrs: nounwind uwtable
define internal i32 @ssl_parse_supported_point_formats(ptr noundef %0, ptr noundef %1, i64 noundef %2) #0 {
  %4 = alloca i32, align 4
  %5 = alloca ptr, align 8
  %6 = alloca ptr, align 8
  %7 = alloca i64, align 8
  %8 = alloca i64, align 8
  %9 = alloca ptr, align 8
  %10 = alloca i32, align 4
  store ptr %0, ptr %5, align 8, !tbaa !3
  store ptr %1, ptr %6, align 8, !tbaa !8
  store i64 %2, ptr %7, align 8, !tbaa !10
  call void @llvm.lifetime.start.p0(i64 8, ptr %8) #10
  call void @llvm.lifetime.start.p0(i64 8, ptr %9) #10
  %11 = load i64, ptr %7, align 8, !tbaa !10
  %12 = icmp eq i64 %11, 0
  br i1 %12, label %22, label %13

13:                                               ; preds = %3
  %14 = load ptr, ptr %6, align 8, !tbaa !8
  %15 = getelementptr inbounds i8, ptr %14, i64 0
  %16 = load i8, ptr %15, align 1, !tbaa !56
  %17 = zext i8 %16 to i32
  %18 = add nsw i32 %17, 1
  %19 = sext i32 %18 to i64
  %20 = load i64, ptr %7, align 8, !tbaa !10
  %21 = icmp ne i64 %19, %20
  br i1 %21, label %22, label %26

22:                                               ; preds = %13, %3
  %23 = load ptr, ptr %5, align 8, !tbaa !3
  call void (ptr, i32, ptr, i32, ptr, ...) @mbedtls_debug_print_msg(ptr noundef %23, i32 noundef 1, ptr noundef @.str, i32 noundef 254, ptr noundef @.str.8)
  %24 = load ptr, ptr %5, align 8, !tbaa !3
  %25 = call i32 @mbedtls_ssl_send_alert_message(ptr noundef %24, i8 noundef zeroext 2, i8 noundef zeroext 50)
  store i32 -29440, ptr %4, align 4
  store i32 1, ptr %10, align 4
  br label %68

26:                                               ; preds = %13
  %27 = load ptr, ptr %6, align 8, !tbaa !8
  %28 = getelementptr inbounds i8, ptr %27, i64 0
  %29 = load i8, ptr %28, align 1, !tbaa !56
  %30 = zext i8 %29 to i64
  store i64 %30, ptr %8, align 8, !tbaa !10
  %31 = load ptr, ptr %6, align 8, !tbaa !8
  %32 = getelementptr inbounds i8, ptr %31, i64 1
  store ptr %32, ptr %9, align 8, !tbaa !8
  br label %33

33:                                               ; preds = %62, %26
  %34 = load i64, ptr %8, align 8, !tbaa !10
  %35 = icmp ugt i64 %34, 0
  br i1 %35, label %36, label %67

36:                                               ; preds = %33
  %37 = load ptr, ptr %9, align 8, !tbaa !8
  %38 = getelementptr inbounds i8, ptr %37, i64 0
  %39 = load i8, ptr %38, align 1, !tbaa !56
  %40 = zext i8 %39 to i32
  %41 = icmp eq i32 %40, 0
  br i1 %41, label %48, label %42

42:                                               ; preds = %36
  %43 = load ptr, ptr %9, align 8, !tbaa !8
  %44 = getelementptr inbounds i8, ptr %43, i64 0
  %45 = load i8, ptr %44, align 1, !tbaa !56
  %46 = zext i8 %45 to i32
  %47 = icmp eq i32 %46, 1
  br i1 %47, label %48, label %62

48:                                               ; preds = %42, %36
  %49 = load ptr, ptr %9, align 8, !tbaa !8
  %50 = getelementptr inbounds i8, ptr %49, i64 0
  %51 = load i8, ptr %50, align 1, !tbaa !56
  %52 = load ptr, ptr %5, align 8, !tbaa !3
  %53 = getelementptr inbounds nuw %struct.mbedtls_ssl_context, ptr %52, i32 0, i32 16
  %54 = load ptr, ptr %53, align 8, !tbaa !41
  %55 = getelementptr inbounds nuw %struct.mbedtls_ssl_handshake_params, ptr %54, i32 0, i32 25
  %56 = getelementptr inbounds nuw %struct.mbedtls_ecdh_context, ptr %55, i32 0, i32 0
  store i8 %51, ptr %56, align 8, !tbaa !141
  %57 = load ptr, ptr %5, align 8, !tbaa !3
  %58 = load ptr, ptr %9, align 8, !tbaa !8
  %59 = getelementptr inbounds i8, ptr %58, i64 0
  %60 = load i8, ptr %59, align 1, !tbaa !56
  %61 = zext i8 %60 to i32
  call void (ptr, i32, ptr, i32, ptr, ...) @mbedtls_debug_print_msg(ptr noundef %57, i32 noundef 4, ptr noundef @.str, i32 noundef 274, ptr noundef @.str.59, i32 noundef %61)
  store i32 0, ptr %4, align 4
  store i32 1, ptr %10, align 4
  br label %68

62:                                               ; preds = %42
  %63 = load i64, ptr %8, align 8, !tbaa !10
  %64 = add i64 %63, -1
  store i64 %64, ptr %8, align 8, !tbaa !10
  %65 = load ptr, ptr %9, align 8, !tbaa !8
  %66 = getelementptr inbounds nuw i8, ptr %65, i32 1
  store ptr %66, ptr %9, align 8, !tbaa !8
  br label %33, !llvm.loop !142

67:                                               ; preds = %33
  store i32 0, ptr %4, align 4
  store i32 1, ptr %10, align 4
  br label %68

68:                                               ; preds = %67, %48, %22
  call void @llvm.lifetime.end.p0(i64 8, ptr %9) #10
  call void @llvm.lifetime.end.p0(i64 8, ptr %8) #10
  %69 = load i32, ptr %4, align 4
  ret i32 %69
}