; Function Attrs: nounwind uwtable
define internal fastcc range(i32 -29440, 1) i32 @ssl_parse_supported_point_formats(ptr noundef %0, ptr noundef readonly captures(none) %1, i64 noundef range(i64 0, 65536) %2) unnamed_addr #5 {
  %4 = icmp eq i64 %2, 0
  br i1 %4, label %9, label %5

5:                                                ; preds = %3
  %6 = load i8, ptr %1, align 1, !tbaa !38
  %7 = zext i8 %6 to i64
  %8 = add nuw nsw i64 %7, 1
  %.not = icmp eq i64 %8, %2
  br i1 %.not, label %.preheader, label %9

.preheader:                                       ; preds = %5
  %.not2023 = icmp eq i8 %6, 0
  br i1 %.not2023, label %.loopexit, label %.lr.ph

9:                                                ; preds = %5, %3
  tail call void (ptr, i32, ptr, i32, ptr, ...) @mbedtls_debug_print_msg(ptr noundef %0, i32 noundef 1, ptr noundef nonnull @.str, i32 noundef 254, ptr noundef nonnull @.str.8) #12
  %10 = tail call i32 @mbedtls_ssl_send_alert_message(ptr noundef %0, i8 noundef zeroext 2, i8 noundef zeroext 50) #12
  br label %.loopexit

11:                                               ; preds = %.lr.ph
  %12 = add nsw i64 %.01624, -1
  %.not20 = icmp eq i64 %12, 0
  br i1 %.not20, label %.loopexit, label %.lr.ph, !llvm.loop !158

.lr.ph:                                           ; preds = %.preheader, %11
  %.pn.pn = phi ptr [ %.025, %11 ], [ %1, %.preheader ]
  %.01624 = phi i64 [ %12, %11 ], [ %7, %.preheader ]
  %.025 = getelementptr inbounds nuw i8, ptr %.pn.pn, i64 1
  %13 = load i8, ptr %.025, align 1, !tbaa !38
  %switch = icmp ult i8 %13, 2
  br i1 %switch, label %14, label %11

14:                                               ; preds = %.lr.ph
  %15 = getelementptr inbounds nuw i8, ptr %0, i64 112
  %16 = load ptr, ptr %15, align 8, !tbaa !45
  %17 = getelementptr inbounds nuw i8, ptr %16, i64 280
  store i8 %13, ptr %17, align 8, !tbaa !159
  %18 = load i8, ptr %.025, align 1, !tbaa !38
  %19 = zext i8 %18 to i32
  tail call void (ptr, i32, ptr, i32, ptr, ...) @mbedtls_debug_print_msg(ptr noundef %0, i32 noundef 4, ptr noundef nonnull @.str, i32 noundef 274, ptr noundef nonnull @.str.59, i32 noundef %19) #12
  br label %.loopexit

.loopexit:                                        ; preds = %11, %.preheader, %14, %9
  %.017 = phi i32 [ -29440, %9 ], [ 0, %14 ], [ 0, %.preheader ], [ 0, %11 ]
  ret i32 %.017
}